target datalayout = "e-m:e-p270:32:32-p271:32:32-p272:64:64-i64:64-i128:128-f80:128-n8:16:32:64-S128"
target triple = "x86_64-pc-linux-gnu"

%struct.client_io_info = type { i32, ptr, %struct.io_hdr_t, ptr, i32, i8, ptr, ptr, i32, i8, i32, i32, i8, i32, i8 }
%struct.io_hdr_t = type { i32, i16, i16, i32 }
%struct.stepd_step_rec_t = type { ptr, ptr, i32, %union.pthread_cond_t, %union.pthread_mutex_t, %struct.slurm_step_id_msg, i32, i32, i32, i32, i32, i32, ptr, ptr, i32, i32, ptr, i32, i32, i32, i32, i32, ptr, ptr, ptr, ptr, i32, i32, i64, i64, i16, i32, ptr, ptr, ptr, i32, ptr, i32, ptr, i32, ptr, i16, i32, i32, i32, ptr, i32, ptr, ptr, ptr, ptr, i32, i32, ptr, ptr, i8, i8, i8, i64, i32, ptr, ptr, ptr, ptr, ptr, ptr, ptr, ptr, ptr, ptr, i32, i32, ptr, i8, %union.pthread_cond_t, %union.pthread_mutex_t, i64, ptr, i32, i32, i32, ptr, i64, ptr, ptr, i8, ptr, i16, ptr, ptr, ptr, ptr, ptr, ptr, i64, ptr, i64, ptr, i16, i8, i16, i32, ptr, i16, ptr, ptr, i16, ptr, ptr, ptr, i8 }
%struct.slurm_step_id_msg = type { i64, i32, i32, i32 }
%union.pthread_cond_t = type { %struct.__pthread_cond_s }
%struct.__pthread_cond_s = type { %union.__atomic_wide_counter, %union.__atomic_wide_counter, [2 x i32], [2 x i32], i32, i32, [2 x i32] }
%union.__atomic_wide_counter = type { i64 }
%union.pthread_mutex_t = type { %struct.__pthread_mutex_s }
%struct.__pthread_mutex_s = type { i32, i32, i32, i32, i32, i16, i16, %struct.__pthread_internal_list }
%struct.__pthread_internal_list = type { ptr, ptr }

@local_file_ops = dso_local global { ptr, ptr, ptr, ptr, ptr, ptr, ptr, i32, [4 x i8] } { ptr null, ptr @_local_file_writable, ptr null, ptr null, ptr @_local_file_write, ptr null, ptr null, i32 0, [4 x i8] zeroinitializer }, align 8
@.str.12 = private unnamed_addr constant [5 x i8] c"io.c\00", align 1
@__func__.io_create_local_client = private unnamed_addr constant [23 x i8] c"io_create_local_client\00", align 1
@.str.13 = private unnamed_addr constant [36 x i8] c"Now handling %d IO Client object(s)\00", align 1

; Function Attrs: nounwind uwtable
define dso_local i32 @io_create_local_client(ptr noundef %0, i32 noundef %1, ptr noundef %2, i1 noundef zeroext %3, i32 noundef %4, i32 noundef %5) #0 {
  %7 = alloca i32, align 4
  %8 = alloca ptr, align 8
  %9 = alloca i32, align 4
  %10 = alloca ptr, align 8
  %11 = alloca i8, align 1
  %12 = alloca i32, align 4
  %13 = alloca i32, align 4
  %14 = alloca i32, align 4
  %15 = alloca ptr, align 8
  %16 = alloca ptr, align 8
  %17 = alloca i32, align 4
  %18 = alloca i32, align 4
  store ptr %0, ptr %8, align 8
  store i32 %1, ptr %9, align 4
  store ptr %2, ptr %10, align 8
  %19 = zext i1 %3 to i8
  store i8 %19, ptr %11, align 1
  store i32 %4, ptr %12, align 4
  store i32 %5, ptr %13, align 4
  call void @llvm.lifetime.start.p0(i64 4, ptr %14) #10
  store i32 -1, ptr %14, align 4
  call void @llvm.lifetime.start.p0(i64 8, ptr %15) #10
  call void @llvm.lifetime.start.p0(i64 8, ptr %16) #10
  call void @llvm.lifetime.start.p0(i64 4, ptr %17) #10
  %20 = load ptr, ptr %8, align 8
  %21 = load i32, ptr %9, align 4
  %22 = or i32 %21, 524288
  %23 = call i32 (ptr, i32, ...) @open(ptr noundef %20, i32 noundef %22, i32 noundef 438)
  store i32 %23, ptr %14, align 4
  %24 = load i32, ptr %14, align 4
  %25 = icmp eq i32 %24, -1
  br i1 %25, label %26, label %27

26:                                               ; preds = %6
  store i32 4021, ptr %7, align 4
  store i32 1, ptr %18, align 4
  br label %91

27:                                               ; preds = %6
  %28 = call ptr @slurm_xcalloc(i64 noundef 1, i64 noundef 96, i1 noundef zeroext true, i1 noundef zeroext false, ptr noundef @.str.12, i32 noundef 1599, ptr noundef @__func__.io_create_local_client)
  store ptr %28, ptr %15, align 8
  %29 = load ptr, ptr %15, align 8
  %30 = getelementptr inbounds nuw %struct.client_io_info, ptr %29, i32 0, i32 0
  store i32 65794, ptr %30, align 8
  %31 = load ptr, ptr %10, align 8
  %32 = load ptr, ptr %15, align 8
  %33 = getelementptr inbounds nuw %struct.client_io_info, ptr %32, i32 0, i32 1
  store ptr %31, ptr %33, align 8
  %34 = call ptr @list_create(ptr noundef null)
  %35 = load ptr, ptr %15, align 8
  %36 = getelementptr inbounds nuw %struct.client_io_info, ptr %35, i32 0, i32 6
  store ptr %34, ptr %36, align 8
  %37 = load i32, ptr %12, align 4
  %38 = load ptr, ptr %15, align 8
  %39 = getelementptr inbounds nuw %struct.client_io_info, ptr %38, i32 0, i32 10
  store i32 %37, ptr %39, align 8
  %40 = load i32, ptr %13, align 4
  %41 = load ptr, ptr %15, align 8
  %42 = getelementptr inbounds nuw %struct.client_io_info, ptr %41, i32 0, i32 11
  store i32 %40, ptr %42, align 4
  %43 = load i8, ptr %11, align 1, !range !8, !noundef !9
  %44 = trunc i8 %43 to i1
  %45 = load ptr, ptr %15, align 8
  %46 = getelementptr inbounds nuw %struct.client_io_info, ptr %45, i32 0, i32 12
  %47 = zext i1 %44 to i8
  store i8 %47, ptr %46, align 8
  %48 = load ptr, ptr %15, align 8
  %49 = getelementptr inbounds nuw %struct.client_io_info, ptr %48, i32 0, i32 14
  store i8 1, ptr %49, align 8
  %50 = load ptr, ptr %15, align 8
  %51 = getelementptr inbounds nuw %struct.client_io_info, ptr %50, i32 0, i32 13
  store i32 1, ptr %51, align 4
  %52 = load ptr, ptr %10, align 8
  %53 = getelementptr inbounds nuw %struct.stepd_step_rec_t, ptr %52, i32 0, i32 11
  %54 = load i32, ptr %53, align 4
  %55 = sub i32 %54, 1
  store i32 %55, ptr %17, align 4
  br label %56

56:                                               ; preds = %60, %27
  %57 = load i32, ptr %17, align 4
  %58 = sdiv i32 %57, 10
  store i32 %58, ptr %17, align 4
  %59 = icmp sgt i32 %58, 0
  br i1 %59, label %60, label %65

60:                                               ; preds = %56
  %61 = load ptr, ptr %15, align 8
  %62 = getelementptr inbounds nuw %struct.client_io_info, ptr %61, i32 0, i32 13
  %63 = load i32, ptr %62, align 4
  %64 = add nsw i32 %63, 1
  store i32 %64, ptr %62, align 4
  br label %56, !llvm.loop !22

65:                                               ; preds = %56
  %66 = load i32, ptr %14, align 4
  %67 = load ptr, ptr %15, align 8
  %68 = call ptr @eio_obj_create(i32 noundef %66, ptr noundef @local_file_ops, ptr noundef %67)
  store ptr %68, ptr %16, align 8
  %69 = load ptr, ptr %10, align 8
  %70 = getelementptr inbounds nuw %struct.stepd_step_rec_t, ptr %69, i32 0, i32 65
  %71 = load ptr, ptr %70, align 8
  %72 = load ptr, ptr %16, align 8
  call void @list_append(ptr noundef %71, ptr noundef %72)
  %73 = load ptr, ptr %10, align 8
  %74 = getelementptr inbounds nuw %struct.stepd_step_rec_t, ptr %73, i32 0, i32 63
  %75 = load ptr, ptr %74, align 8
  %76 = load ptr, ptr %16, align 8
  call void @eio_new_initial_obj(ptr noundef %75, ptr noundef %76)
  br label %77

77:                                               ; preds = %65
  br label %78

78:                                               ; preds = %77
  %79 = call i32 @get_log_level()
  %80 = icmp sge i32 %79, 9
  br i1 %80, label %81, label %86

81:                                               ; preds = %78
  %82 = load ptr, ptr %10, align 8
  %83 = getelementptr inbounds nuw %struct.stepd_step_rec_t, ptr %82, i32 0, i32 65
  %84 = load ptr, ptr %83, align 8
  %85 = call i32 @list_count(ptr noundef %84)
  call void (i32, ptr, ...) @log_var(i32 noundef 9, ptr noundef @.str.13, i32 noundef %85)
  br label %86

86:                                               ; preds = %81, %78
  br label %87

87:                                               ; preds = %86
  br label %88

88:                                               ; preds = %87
  br label %89

89:                                               ; preds = %88
  br label %90

90:                                               ; preds = %89
  store i32 0, ptr %7, align 4
  store i32 1, ptr %18, align 4
  br label %91

91:                                               ; preds = %90, %26
  call void @llvm.lifetime.end.p0(i64 4, ptr %17) #10
  call void @llvm.lifetime.end.p0(i64 8, ptr %16) #10
  call void @llvm.lifetime.end.p0(i64 8, ptr %15) #10
  call void @llvm.lifetime.end.p0(i64 4, ptr %14) #10
  %92 = load i32, ptr %7, align 4
  ret i32 %92
}