; Function Attrs: nounwind uwtable
define dso_local range(i32 0, 4022) i32 @io_create_local_client(ptr noundef readonly captures(none) %0, i32 noundef %1, ptr noundef %2, i1 noundef zeroext %3, i32 noundef %4, i32 noundef %5) local_unnamed_addr #0 {
  %7 = or i32 %1, 524288
  %8 = tail call i32 (ptr, i32, ...) @open(ptr noundef %0, i32 noundef %7, i32 noundef 438) #11
  %9 = icmp eq i32 %8, -1
  br i1 %9, label %40, label %10

10:                                               ; preds = %6
  %11 = zext i1 %3 to i8
  %12 = tail call ptr @slurm_xcalloc(i64 noundef 1, i64 noundef 96, i1 noundef zeroext true, i1 noundef zeroext false, ptr noundef nonnull @.str.12, i32 noundef 1599, ptr noundef nonnull @__func__.io_create_local_client) #11
  store i32 65794, ptr %12, align 8
  %13 = getelementptr inbounds nuw i8, ptr %12, i64 8
  store ptr %2, ptr %13, align 8
  %14 = tail call ptr @list_create(ptr noundef null) #11
  %15 = getelementptr inbounds nuw i8, ptr %12, i64 48
  store ptr %14, ptr %15, align 8
  %16 = getelementptr inbounds nuw i8, ptr %12, i64 72
  store i32 %4, ptr %16, align 8
  %17 = getelementptr inbounds nuw i8, ptr %12, i64 76
  store i32 %5, ptr %17, align 4
  %18 = getelementptr inbounds nuw i8, ptr %12, i64 80
  store i8 %11, ptr %18, align 8
  %19 = getelementptr inbounds nuw i8, ptr %12, i64 88
  store i8 1, ptr %19, align 8
  %20 = getelementptr inbounds nuw i8, ptr %12, i64 84
  store i32 1, ptr %20, align 4
  %21 = getelementptr inbounds nuw i8, ptr %2, i64 156
  %22 = load i32, ptr %21, align 4
  %23 = add i32 %22, -1
  %24 = icmp sgt i32 %23, 9
  br i1 %24, label %.lr.ph, label %29

.lr.ph:                                           ; preds = %10, %.lr.ph
  %25 = phi i32 [ %27, %.lr.ph ], [ 1, %10 ]
  %.028 = phi i32 [ %26, %.lr.ph ], [ %23, %10 ]
  %26 = udiv i32 %.028, 10
  %27 = add nuw nsw i32 %25, 1
  %28 = icmp samesign ugt i32 %.028, 99
  br i1 %28, label %.lr.ph, label %._crit_edge, !llvm.loop !25

._crit_edge:                                      ; preds = %.lr.ph
  store i32 %27, ptr %20, align 4
  br label %29

29:                                               ; preds = %._crit_edge, %10
  %30 = tail call ptr @eio_obj_create(i32 noundef %8, ptr noundef nonnull @local_file_ops, ptr noundef nonnull %12) #11
  %31 = getelementptr inbounds nuw i8, ptr %2, i64 504
  %32 = load ptr, ptr %31, align 8
  tail call void @list_append(ptr noundef %32, ptr noundef %30) #11
  %33 = getelementptr inbounds nuw i8, ptr %2, i64 488
  %34 = load ptr, ptr %33, align 8
  tail call void @eio_new_initial_obj(ptr noundef %34, ptr noundef %30) #11
  %35 = tail call i32 @get_log_level() #11
  %36 = icmp sgt i32 %35, 8
  br i1 %36, label %37, label %40

37:                                               ; preds = %29
  %38 = load ptr, ptr %31, align 8
  %39 = tail call i32 @list_count(ptr noundef %38) #11
  tail call void (i32, ptr, ...) @log_var(i32 noundef 9, ptr noundef nonnull @.str.13, i32 noundef %39) #11
  br label %40

40:                                               ; preds = %29, %37, %6
  %.025 = phi i32 [ 4021, %6 ], [ 0, %37 ], [ 0, %29 ]
  ret i32 %.025
}